; Function Attrs: mustprogress uwtable
define void @_ZN2cv3dnn14dnn4_v202412235Layer13unsetAttachedEv(ptr noundef nonnull align 8 dereferenceable(100) %0) unnamed_addr #3 align 2 personality ptr @__gxx_personality_v0 {
  %2 = alloca %"struct.cv::Ptr.6", align 8
  call void @llvm.lifetime.start.p0(i64 16, ptr nonnull %2) #23
  call void @llvm.memset.p0.i64(ptr noundef nonnull align 8 dereferenceable(16) %2, i8 0, i64 16, i1 false)
  %3 = load ptr, ptr %0, align 8, !tbaa !3
  %4 = getelementptr inbounds nuw i8, ptr %3, i64 200
  %5 = load ptr, ptr %4, align 8
  %6 = invoke noundef zeroext i1 %5(ptr noundef nonnull align 8 dereferenceable(100) %0, ptr noundef nonnull align 8 dereferenceable(16) %2)
          to label %7 unwind label %31

7:                                                ; preds = %1
  %8 = getelementptr inbounds nuw i8, ptr %2, i64 8
  %9 = load ptr, ptr %8, align 8, !tbaa !62
  %.not.i.i = icmp eq ptr %9, null
  br i1 %.not.i.i, label %_ZNSt12__shared_ptrIN2cv3dnn14dnn4_v2024122315ActivationLayerELN9__gnu_cxx12_Lock_policyE2EED2Ev.exit, label %10

10:                                               ; preds = %7
  %11 = getelementptr inbounds nuw i8, ptr %9, i64 8
  %12 = load atomic i64, ptr %11 acquire, align 8
  %13 = icmp eq i64 %12, 4294967297
  %14 = trunc i64 %12 to i32
  br i1 %13, label %15, label %23

15:                                               ; preds = %10
  store i32 0, ptr %11, align 8, !tbaa !65
  %16 = getelementptr inbounds nuw i8, ptr %9, i64 12
  store i32 0, ptr %16, align 4, !tbaa !67
  %17 = load ptr, ptr %9, align 8, !tbaa !3
  %18 = getelementptr inbounds nuw i8, ptr %17, i64 16
  %19 = load ptr, ptr %18, align 8
  call void %19(ptr noundef nonnull align 8 dereferenceable(16) %9) #23
  %20 = load ptr, ptr %9, align 8, !tbaa !3
  %21 = getelementptr inbounds nuw i8, ptr %20, i64 24
  %22 = load ptr, ptr %21, align 8
  call void %22(ptr noundef nonnull align 8 dereferenceable(16) %9) #23
  br label %_ZNSt12__shared_ptrIN2cv3dnn14dnn4_v2024122315ActivationLayerELN9__gnu_cxx12_Lock_policyE2EED2Ev.exit

23:                                               ; preds = %10
  %24 = load i8, ptr @__libc_single_threaded, align 1, !tbaa !14
  %.not.i.i.i = icmp eq i8 %24, 0
  br i1 %.not.i.i.i, label %27, label %25

25:                                               ; preds = %23
  %26 = add nsw i32 %14, -1
  store i32 %26, ptr %11, align 4, !tbaa !61
  br label %_ZN9__gnu_cxx27__exchange_and_add_dispatchEPii.exit.i.i.i

27:                                               ; preds = %23
  %28 = atomicrmw volatile add ptr %11, i32 -1 acq_rel, align 4
  br label %_ZN9__gnu_cxx27__exchange_and_add_dispatchEPii.exit.i.i.i

_ZN9__gnu_cxx27__exchange_and_add_dispatchEPii.exit.i.i.i: ; preds = %27, %25
  %.0.i.i.i.i = phi i32 [ %14, %25 ], [ %28, %27 ]
  %29 = icmp eq i32 %.0.i.i.i.i, 1
  br i1 %29, label %30, label %_ZNSt12__shared_ptrIN2cv3dnn14dnn4_v2024122315ActivationLayerELN9__gnu_cxx12_Lock_policyE2EED2Ev.exit, !prof !28

30:                                               ; preds = %_ZN9__gnu_cxx27__exchange_and_add_dispatchEPii.exit.i.i.i
  call void @_ZNSt16_Sp_counted_baseILN9__gnu_cxx12_Lock_policyE2EE24_M_release_last_use_coldEv(ptr noundef nonnull align 8 dereferenceable(16) %9) #23
  br label %_ZNSt12__shared_ptrIN2cv3dnn14dnn4_v2024122315ActivationLayerELN9__gnu_cxx12_Lock_policyE2EED2Ev.exit

_ZNSt12__shared_ptrIN2cv3dnn14dnn4_v2024122315ActivationLayerELN9__gnu_cxx12_Lock_policyE2EED2Ev.exit: ; preds = %7, %15, %_ZN9__gnu_cxx27__exchange_and_add_dispatchEPii.exit.i.i.i, %30
  call void @llvm.lifetime.end.p0(i64 16, ptr nonnull %2) #23
  ret void

31:                                               ; preds = %1
  %32 = landingpad { ptr, i32 }
          cleanup
  call void @_ZNSt12__shared_ptrIN2cv3dnn14dnn4_v2024122315ActivationLayerELN9__gnu_cxx12_Lock_policyE2EED2Ev(ptr noundef nonnull align 8 dereferenceable(16) %2) #23
  call void @llvm.lifetime.end.p0(i64 16, ptr nonnull %2) #23
  resume { ptr, i32 } %32
}